(dp0
V\u7ae0\u78a3
p1
I404
sV\u9ad8\u9a88
p2
I266
sV\u77f3\u5b5d\u53cb
p3
I118
sV\u52b1\u5fd7
p4
I1081
sV\u767d\u6734
p5
I405
sV\u9ec4\u5347
p6
I209
sV\u6124\u61d1
p7
I1105
sV\u674e\u5143\u81ba
p8
I562
sV\u5389\u9e57
p9
I616
sV\u53f6\u7ecd\u7fc1
p10
I339
sV\u9676\u7ff0
p11
I499
sV\u6bdb\u6ec2
p12
I76
sV\u62a4\u56fd
p13
I601
sV\u674e\u767d
p14
I4
sV\u8d75\u5e0c\u84ec
p15
I487
sV\u5218\u957f\u537f
p16
I14
sV\u9ec4\u5ef7\u74b9
p17
I873
sV\u5f20\u67a2
p18
I762
sV\u9648\u5e08\u9053
p19
I234
sV\u738b\u89c2
p20
I246
sV\u738b\u91c7
p21
I626
sV\u59da\u5bbd
p22
I695
sV\u67f3\u4e2d\u5eb8
p23
I619
sV\u72ec\u5b64\u53ca
p24
I191
sV\u674e\u4e42
p25
I285
sV\u590f\u5143\u9f0e
p26
I360
sV\u91d1\u671d
p27
I1012
sV\u5f90\u4fef
p28
I490
sV\u8d3e\u8c0a
p29
I969
sV\u6731\u666f\u7384
p30
I523
sV\u8d75\u8543
p31
I931
sV\u9ad8\u4e2d\u6587\u8a00\u6587
p32
I1109
sV\u5411\u6ec8
p33
I187
sV\u7a0b\u8282\u9f50
p34
I730
sV\u5362\u7167\u90bb
p35
I157
sV\u5148\u79e6
p36
I1006
sV\u5b5f\u6c0f
p37
I893
sV\u674e\u4e2d
p38
I53
sV\u6641\u91c7
p39
I681
sV\u9648\u4e0e\u4e49
p40
I314
sV\u5b59\u9c82
p41
I442
sV\u6c64\u6062
p42
I808
sV\u53f8\u9a6c\u8fc1
p43
I439
sV\u5218\u5ead\u4fe1
p44
I641
sV\u5f20\u8d32
p45
I536
sV\u6000\u4eba
p46
I1040
sV\u674e\u663e
p47
I805
sV\u6768\u6c5d\u58eb
p48
I704
sV\u9b4f\u664b
p49
I1011
sV\u6cd5\u7167
p50
I879
sV\u82cf\u5ea0
p51
I428
sV\u4e94\u4ee3
p52
I1010
sV\u5f20\u4f2f\u5bff
p53
I809
sV\u848b\u8d3b\u606d
p54
I493
sV\u4efb\u5e0c\u53e4
p55
I880
sV\u66f9\u52cb
p56
I93
sV\u6c5f\u4e3a
p57
I737
sV\u5f90\u7ecf\u5b59
p58
I687
sV\u5357\u5317\u671d
p59
I1008
sV\u6000\u624d\u4e0d\u9047
p60
I1069
sV\u4e50\u5e9c
p61
I1037
sV\u6816\u767d
p62
I540
sV\u6b66\u5143\u8861
p63
I88
sV\u590f\u5b8c\u6df3
p64
I798
sV\u5b8b\u7941
p65
I570
sV\u97e9\u975e
p66
I719
sV\u8bb8\u6d51
p67
I15
sV\u6881\u953d
p68
I524
sV\u8d75\u5b50\u53d1
p69
I503
sV\u5b5f\u8fdf
p70
I492
sV\u6c34\u795e
p71
I655
sV\u90ed\u9707
p72
I473
sV\u738b\u5143\u9f0e
p73
I923
sV\u50a8\u55e3\u5b97
p74
I308
sV\u53ef\u6b62
p75
I716
sV\u79e6\u97ec\u7389
p76
I311
sV\u4e8e\u6b66\u9675
p77
I256
sV\u5b8b\u4e4b\u95ee
p78
I89
sV\u7075\u6f88
p79
I334
sV\u5f20\u5faa\u4e4b
p80
I802
sV\u97e6\u9aa7
p81
I644
sV\u5b8b\u8bcd\u4e09\u767e\u9996
p82
I1030
sV\u5cb3\u73c2
p83
I848
sV\u6641\u51b2\u4e4b
p84
I507
sV\u6731\u6dd1\u771f
p85
I391
sV\u80e1\u66fe
p86
I107
sV\u9648\u7ef4\u5d27
p87
I572
sV\u5f20\u8012
p88
I544
sV\u674e\u76ca
p89
I98
sV\u8d3e\u5c9b
p90
I30
sV\u90d1\u51c6
p91
I876
sV\u5468\u7aef\u81e3
p92
I731
sV\u94b1\u8d77
p93
I28
sV\u5218\u5b50\u7fec
p94
I754
sV\u960e\u9009
p95
I735
sV\u8c22\u7075\u8fd0
p96
I588
sV\u674e\u7ec5
p97
I113
sV\u9ec4\u516c\u7ecd
p98
I374
sV\u548f\u53f2
p99
I1098
sV\u697c\u91c7
p100
I972
sV\u738b\u5955
p101
I247
sV\u6768\u614e
p102
I991
sV\u6797\u5bbd
p103
I348
sV\u97e6\u5904\u539a
p104
I608
sV\u5199\u6c34
p105
I1101
sV\u8427\u9896\u58eb
p106
I484
sV\u4e54\u77e5\u4e4b
p107
I436
sV\u5f6d\u5143\u900a
p108
I459
sV\u767d\u5c45\u6613
p109
I1
sV\u6bb5\u6210\u5f0f
p110
I258
sV\u6c6a\u9075
p111
I235
sV\u674e\u7ea6
p112
I715
sV\u90b5\u8c12
p113
I344
sV\u5218\u5ead\u7426
p114
I854
sV\u90ed\u4e16\u6a21
p115
I950
sV\u674e\u9022\u5409
p116
I729
sV\u53cb\u4eba
p117
I1066
sV\u9648\u4eba\u6770
p118
I355
sV\u674e\u7ebe
p119
I590
sV\u674e\u7eb2
p120
I249
sV\u9a6c\u81f4\u8fdc
p121
I290
sV\u6bdb\u7199\u9707
p122
I555
sV\u79cb\u747e
p123
I539
sV\u738b\u4e4b\u6da3
p124
I891
sV\u5f20\u660c\u5b97
p125
I971
sV\u4e0a\u5b98\u4eea
p126
I466
sS'tags_unk'
p127
I1017
sV\u5d14\u66d9
p128
I551
sV\u738b\u5341\u670b
p129
I433
sV\u5b8b\u749f
p130
I963
sV\u848b\u5409
p131
I557
sV\u9ec4\u666f\u4ec1
p132
I528
sV\u5199\u9e1f
p133
I1077
sV\u9a6c\u6000\u7d20
p134
I612
sV\u97e9\u7389
p135
I393
sV\u738b\u58eb\u796f
p136
I550
sV\u82cf\u821c\u94a6
p137
I717
sV\u7fc1\u627f\u8d5e
p138
I359
sV\u5199\u5c71
p139
I1085
sV\u9648\u9020
p140
I460
sV\u7530\u56ed
p141
I1080
sV\u5468\u5bc6
p142
I117
sV\u5434\u7b60
p143
I204
sV\u675c\u5b89\u4e16
p144
I190
sV\u6625\u5929
p145
I1028
sV\u674e\u5f6d
p146
I696
sV\u595a\u5c8a
p147
I689
sV\u97e9\u5e38\u4f8d
p148
I778
sV\u8bd7\u7ecf
p149
I1029
sV\u8a00\u5fd7
p150
I1108
sV\u6292\u60c5
p151
I1019
sV\u5143\u7ed3
p152
I129
sV\u6e05\u4ee3
p153
I1005
sV\u5468\u5fc5\u5927
p154
I508
sV\u845b\u80dc\u4ef2
p155
I189
sV\u5415\u672c\u4e2d
p156
I369
sV\u97e6\u5e94\u7269
p157
I10
sV\u672a\u77e5
p158
I1013
sV\u8c22\u61cb
p159
I574
sV\u7075\u4e00
p160
I286
sV\u674e\u8d1e\u767d
p161
I617
sV\u67f3\u6c38
p162
I71
sV\u5218\u514b\u58ee
p163
I977
sV\u859b\u662d\u8574
p164
I566
sV\u6101\u82e6
p165
I1112
sV\u674e\u90b4
p166
I746
sV\u8bae\u8bba
p167
I1078
sV\u738b\u9c81\u590d
p168
I750
sV\u5f20\u7c4d
p169
I22
sV\u5218\u79b9\u9521
p170
I6
sV\u8463\u601d\u606d
p171
I472
sV\u6000\u5ff5
p172
I1072
sV\u5218\u517c
p173
I211
sV\u9ec4\u4eba\u6770
p174
I738
sV\u8d75\u51ac\u66e6
p175
I512
sV\u5218\u5929\u8fea
p176
I868
sV\u5468\u90a6\u5f66
p177
I46
sV\u8521\u6960
p178
I910
sV\u4e18\u5d08
p179
I197
sV\u674e\u73e3
p180
I388
sV\u5c48\u539f
p181
I656
sV\u5f20\u5f6a
p182
I930
sV\u5218\u590d
p183
I526
sV\u59da\u9e44
p184
I349
sV\u7504\u9f99\u53cb
p185
I779
sV\u90ce\u5927\u5bb6\u5b8b\u6c0f
p186
I783
sV\u674e\u5b50\u6b63
p187
I477
sV\u5bd3\u7406
p188
I1075
sV\u5218\u7118
p189
I651
sV\u674e\u68a6\u9633
p190
I900
sV\u5362\u6c5d\u5f3c
p191
I869
sV\u5ebe\u4fe1
p192
I692
sV\u674e\u6f33
p193
I956
sV\u5bd2\u98df\u8282
p194
I1107
sV\u6c5f\u5f00
p195
I907
sV\u6768\u6d5a
p196
I975
sV\u82cf\u8f99
p197
I648
sV\u5468\u5fb7\u6e05
p198
I636
sV\u738b\u708e
p199
I241
sV\u90d1\u635f
p200
I885
sV\u5f20\u8c13
p201
I302
sV\u8ffd\u5fc6
p202
I1084
sV\u5f20\u8c14
p203
I417
sV\u674e\u9f10
p204
I676
sV\u5434\u6e0a
p205
I911
sV\u767d\u884c\u7b80
p206
I857
sV\u66fe\u5e03
p207
I537
sV\u674e\u6f14
p208
I799
sV\u5510\u5bc5
p209
I703
sV\u81e7\u4f59\u5e86
p210
I968
sV\u7f81\u65c5
p211
I1073
sV\u859b\u6d9b
p212
I201
sV\u5b64\u5bc2
p213
I1115
sV\u738b\u9069
p214
I804
sV\u60bc\u4ea1
p215
I1104
sV\u674e\u66fe\u4f2f
p216
I78
sV\u9648\u514b
p217
I274
sV\u6587\u5929\u7965
p218
I505
sV\u7231\u60c5
p219
I1036
sV\u674e\u7ff1
p220
I824
sV\u674e\u5ff1
p221
I817
sV\u674e\u77f3
p222
I300
sV\u6c6a\u5143\u4ea8
p223
I913
sV\u9ec4\u6ed4
p224
I83
sV\u738b\u607d
p225
I609
sV\u8c2d\u7528\u4e4b
p226
I304
sV\u738b\u5043
p227
I894
sV\u865e\u4e16\u5357
p228
I317
sV\u4f24\u6625
p229
I1092
sV\u6816\u87fe
p230
I615
sV\u5987\u5973
p231
I1068
sV\u8881\u53bb\u534e
p232
I164
sV\u8d75\u5e08\u4fa0
p233
I115
sV\u65bd\u80a9\u543e
p234
I86
sV\u5434\u793c\u4e4b
p235
I474
sV\u5c0f\u5b66\u53e4\u8bd7
p236
I1093
sV\u5d14\u6a79
p237
I361
sV\u5f20\u6ccc
p238
I327
sV\u6768\u6cfd\u6c11
p239
I178
sV\u5f20\u8f91
p240
I283
sV\u674e\u8fdc
p241
I325
sV\u9676\u6e0a\u660e
p242
I343
sV\u674e\u4e49\u5e9c
p243
I725
sV\u725b\u5ce4
p244
I415
sV\u6731\u5143\u748b
p245
I292
sV\u6797\u6df3
p246
I642
sV\u9648\u6960
p247
I437
sV\u738b\u707c
p248
I446
sV\u82cf\u5473\u9053
p249
I556
sV\u859b\u5b58\u8bda
p250
I631
sV\u5f20\u53c8\u65b0
p251
I529
sV\u5434\u5747
p252
I670
sV\u5362\u8c61
p253
I409
sV\u9ece\u5ef7\u745e
p254
I352
sV\u53f8\u7a7a\u56fe
p255
I69
sV\u859b\u6602\u592b
p256
I533
sV\u82cf\u8f7c
p257
I25
sV\u7fc1\u6eaa\u56ed
p258
I998
sV\u5c48\u5927\u5747
p259
I952
sV\u66fe\u7ea1
p260
I722
sV\u725b\u50e7\u5b7a
p261
I946
sV\u8c22\u9038
p262
I227
sV\u4ef2\u6b8a
p263
I141
sV\u5362\u85cf\u7528
p264
I769
sV\u738b\u548c\u537f
p265
I653
sV\u8d2f\u4e91\u77f3
p266
I430
sV\u90b9\u5e94\u9f99
p267
I976
sV\u53f8\u7a7a\u66d9
p268
I101
sV\u53f2\u8fbe\u7956
p269
I149
sV\u7687\u752b\u5189
p270
I38
sV\u73b0\u4ee3
p271
I1016
sV\u79e6\u89c2
p272
I116
sV\u738b\u56fd\u7ef4
p273
I577
sV\u4e54\u5409
p274
I288
sV\u8463\u9896
p275
I674
sV\u5b8b\u8bcd\u7cbe\u9009
p276
I1039
sV\u5199\u96ea
p277
I1083
sV\u90d1\u5ef6\u7389
p278
I922
sV\u6bb7\u6587\u572d
p279
I386
sV\u8f9b\u5f03\u75be
p280
I9
sV\u5f20\u6f6e
p281
I825
sV\u9648\u5b50\u9f99
p282
I646
sV\u8427\u5ef7\u4e4b
p283
I271
sV\u5546\u885f
p284
I758
sV\u8bb8\u5ba3\u5e73
p285
I888
sV\u6cd5\u632f
p286
I519
sV\u66f9\u90ba
p287
I156
sV\u674e\u5546\u9690
p288
I7
sV\u9648\u6807
p289
I610
sV\u8212\u5143\u8206
p290
I826
sV\u4faf\u7f6e
p291
I87
sV\u9f9a\u81ea\u73cd
p292
I461
sV\u5218\u5411
p293
I597
sV\u5f20\u5747
p294
I624
sV\u5218\u8fb0\u7fc1
p295
I42
sV\u5434\u4ec1\u537f
p296
I760
sV\u8d75\u5fc5{\u738b\u8c61}
p297
I354
sV\u4ee4\u72d0\u695a
p298
I257
sV\u7aa6\u725f
p299
I450
sV\u5143\u7a39
p300
I8
sV\u5199\u4eba
p301
I1023
sV\u5218\u9a7e
p302
I208
sV\u5c91\u7fb2
p303
I973
sV\u6768\u51a0\u537f
p304
I330
sV\u738b\u5b9e\u752b
p305
I724
sV\u675c\u752b
p306
I3
sV\u738b\u8bdc
p307
I400
sV\u5f20\u4f2f\u7aef
p308
I384
sV\u9ec4\u9075\u5baa
p309
I906
sV\u51c0\u5706
p310
I611
sV\u5d14\u6e5c
p311
I342
sV\u8bb8\u5f6c
p312
I456
sV\u5eb7\u4e0e\u4e4b
p313
I416
sV\u65e0\u540d\u6c0f
p314
I153
sV\u987e\u51b5
p315
I68
sV\u521d\u4e2d\u53e4\u8bd7
p316
I1070
sV\u5e38\u5efa
p317
I251
sV\u5bc7\u51c6
p318
I658
sV\u5f20\u886e
p319
I859
sV\u738b\u5b88\u4ec1
p320
I685
sV\u8bb8\u656c\u5b97
p321
I387
sV\u90d1\u9068
p322
I553
sV\u767d\u541b\u745e
p323
I996
sV\u8d75\u6c5d\u832a
p324
I585
sV\u59da\u8ff0\u5c27
p325
I217
sV\u5c0f\u5b66\u6587\u8a00\u6587
p326
I1100
sV\u9648\u7fca
p327
I813
sV\u891a\u4eae
p328
I338
sV\u502a\u74d2
p329
I816
sV\u5434\u5546\u6d69
p330
I733
sV\u5f20\u9707
p331
I944
sV\u738b\u4e4b\u671b
p332
I254
sV\u674e\u6e05\u7167
p333
I233
sV\u67f3\u5b97\u5143
p334
I75
sV\u6d2a\u7693
p335
I447
sV\u5b5f\u8d2f
p336
I353
sV\u97e9\u6108
p337
I27
sV\u5ed6\u51dd
p338
I785
sV\u4e18\u4e39
p339
I541
sV\u601d\u4e61
p340
I1034
sV\u987e\u592a\u6e05
p341
I797
sV\u59da\u5d07
p342
I794
sV\u674e\u5415
p343
I510
sV\u738b\u660c\u9f84
p344
I80
sV\u90d1\u677f\u6865
p345
I947
sV\u5d14\u9053\u878d
p346
I220
sV\u8377\u82b1
p347
I1106
sV\u9ad8\u9002
p348
I74
sV\u80e1\u94e8
p349
I515
sV\u51af\u4f1f\u5bff
p350
I965
sV\u5f20\u77e9
p351
I423
sV\u674e\u5ce4
p352
I58
sV\u6b62\u7985\u5e08
p353
I765
sV\u5f20\u5b5d\u7965
p354
I79
sV\u4e8e\u90ba
p355
I341
sV\u5218\u65f6\u4e2d
p356
I478
sV\u5b59\u534e\u5b59
p357
I659
sV\u6c88\u62ec
p358
I489
sV\u738b\u5efa
p359
I21
sV\u5434\u5106
p360
I375
sV\u620e\u6631
p361
I70
sV\u5218\u5b66\u7b95
p362
I313
sV\u8d75\u9e3e\u9e3e
p363
I989
sV\u5f20\u78a7
p364
I495
sV\u82cf\u6c0f
p365
I795
sV\u6731\u5f5d\u5c0a
p366
I453
sV\u6c88\u7aef\u8282
p367
I279
sV\u5510\u5f66\u8c26
p368
I66
sV\u5fe7\u56fd\u5fe7\u6c11
p369
I1064
sV\u5b5f\u6d69\u7136
p370
I26
sV\u4f0a\u7528\u660c
p371
I773
sV\u53f2\u51e4
p372
I856
sV\u8d75\u4ee4\ue303
p373
I364
sV\u4eba\u751f
p374
I1065
sV\u768e\u7136
p375
I12
sV\u5bd3\u8a00
p376
I1103
sV\u8042\u5937\u4e2d
p377
I298
sV\u9e7f\u8654\u6246
p378
I970
sV\u6768\u5e08\u9053
p379
I449
sV\u738b\u8d1e\u767d
p380
I221
sV\u5218\u4e49\u5e86
p381
I827
sV\u51af\u886e
p382
I928
sV\u548f\u53f2\u6000\u53e4
p383
I1054
sV\u9648\u5055
p384
I957
sV\u5f90\u707f
p385
I967
sV\u59dc\u7279\u7acb
p386
I289
sV\u738b\u4ef2\u752b
p387
I576
sV\u674e\u6cbb
p388
I775
sV\u5434\u5c11\u5fae
p389
I803
sV\u7ba1\u9274
p390
I222
sV\u674e\u5f6d\u8001
p391
I451
sV\u6c88\u4e9a\u4e4b
p392
I402
sV\u6885\u7a97
p393
I749
sV\u8881\u679a
p394
I469
sV\u970d\u603b
p395
I452
sV\u5218\u5b5d\u5b59
p396
I833
sV\u5468\u5321\u7269
p397
I702
sV\u674e\u597d\u53e4
p398
I516
sV\u6641\u7aef\u793c
p399
I125
sV\u66fe\u745e
p400
I426
sV\u5199\u666f
p401
I1018
sV\u9648\u4e09\u8058
p402
I214
sV\u5f90\u518d\u601d
p403
I424
sV\u5d14\u5cd2
p404
I267
sV\u53e4\u8bd7\u4e09\u767e\u9996
p405
I1031
sV\u66f9\u9047
p406
I995
sV\u674e\u6c87
p407
I896
sV\u5de6\u4e18\u660e
p408
I326
sV\u845b\u7acb\u65b9
p409
I309
sV\u4e07\u4fdf\u548f
p410
I383
sV\u674e\u749f
p411
I755
sV\u5218\u5e0c\u5937
p412
I351
sV\u675c\u5149\u5ead
p413
I392
sV\u7ae0\u8c26\u4ea8
p414
I763
sV\u73ed\u56fa
p415
I844
sV\u6885\u82b1
p416
I1060
sV\u6b27\u9633\u4fee
p417
I59
sV\u8428\u90fd\u524c
p418
I630
sV\u9c8d\u7167
p419
I465
sV\u90ce\u58eb\u5143
p420
I215
sV\u59da\u5408
p421
I19
sV\u5d14\u56fd\u8f85
p422
I255
sV\u66f9\u51a0
p423
I228
sV\u6768\u51ed
p424
I482
sV\u674e\u8d64
p425
I727
sV\u6c88\u5343\u8fd0
p426
I992
sV\u738b\u8af2
p427
I942
sV\u5362\u7eb6
p428
I32
sV\u8d75\u5584\u5e86
p429
I522
sV\u738b\u4e3e\u4e4b
p430
I793
sV\u8d5e\u7f8e
p431
I1045
sV\u8881\u6656
p432
I673
sV\u5b5f\u4e91\u537f
p433
I455
sV\u5f20\u767b
p434
I792
sV\u5ed6\u521a
p435
I889
sV\u51ac\u5929
p436
I1087
sV\u84b2\u5bff\ue264
p437
I500
sV\u5f20\u7ee7\u5148
p438
I242
sV\u8d75\u5f66\u662d
p439
I440
sV\u738b\u52c3
p440
I194
sV\u8427\u81f3\u5fe0
p441
I747
sV\u5b5f\u7b80
p442
I741
sV\u6c6a\u8398
p443
I219
sV\u90d1\u6114
p444
I412
sV\u672a\u77e5\u4f5c\u8005
p445
I110
sV\u5b8b\u5148\u751f
p446
I431
sV\u674e\u656c\u65b9
p447
I766
sV\u5218\u8a00\u53f2
p448
I213
sV\u97e9\u5053
p449
I31
sV\u5f20\u53ef\u4e45
p450
I122
sV\u5170\u695a\u82b3
p451
I761
sV\u5389\u7384
p452
I815
sV\u738b\u7ff0
p453
I491
sV\u767e\u5170
p454
I881
sV\u6d2a\u8fc8
p455
I620
sV\u5f20\u4e54
p456
I62
sV\u6731\u5b50\u539a
p457
I568
sV\u8881\u5b8f\u9053
p458
I683
sV\u5c39\u9e57
p459
I545
sV\u84b2\u677e\u9f84
p460
I953
sV\u674e\u6d2a
p461
I607
sV\u97e6\u627f\u5e86
p462
I789
sV\u65bd\u95f0\u7ae0
p463
I936
sV\u4e8e\u5b63\u5b50
p464
I614
sV\u4ec7\u8fdc
p465
I146
sV\u55bb\u5766\u4e4b
p466
I501
sV\u5c1a\u989c
p467
I346
sV\u5f90\u9e7f\u537f
p468
I640
sV\u674e\u8d3a
p469
I61
sV\u96cd\u9676
p470
I143
sV\u718a\u5b7a\u767b
p471
I366
sV\u738b\u9f50\u6108
p472
I535
sV\u674e\u671d\u537f
p473
I790
sV\u7fc1\u5143\u9f99
p474
I468
sV\u5f20\u65ed
p475
I839
sV\u8d75\u957f\u537f
p476
I44
sV\u5f90\u79ef
p477
I637
sV\u865e\u96c6
p478
I819
sV\u5d14\u878d1
p479
I504
sV\u738b\u5ead\ue383
p480
I291
sV\u8d39\u51a0\u537f
p481
I688
sV\u7eb3\u5170\u6027\u5fb7
p482
I142
sV\u9646\u5e0c\u58f0
p483
I448
sV\u767b\u9ad8
p484
I1090
sV\u718a\u768e
p485
I668
sV\u5f90\u51dd
p486
I179
sV\u6bdb\u5e75\ue19a
p487
I294
sV\u674e\u6d1e
p488
I105
sV\u54c0\u957f\u5409
p489
I985
sV\u5362\u4edd
p490
I181
sV\u9648\u5141\u5e73
p491
I73
sV\u5b97\u695a\u5ba2
p492
I807
sV\u60df\u5ba1
p493
I898
sV\u6c88\u701b
p494
I185
sV\u59dc\u5914
p495
I173
sV\u5218\u53c9
p496
I396
sV\u5f20\u7ee7
p497
I262
sV\u5218\u4e59
p498
I875
sV\u67e5\u614e\u884c
p499
I600
sV\u5415\u5357\u516c
p500
I742
sV\u4f55\u900a
p501
I710
sV\u725f\u5dd8\ue443
p502
I706
sV\u5d14\u6daf
p503
I650
sV\u6e05\u6c5f
p504
I454
sV\u8d75\u95fb\u793c
p505
I390
sV\u8427\u5141\u4e4b
p506
I877
sV\u6d2a\u54a8\u5914
p507
I277
sV\u5f90\u5924
p508
I47
sV\u7ec4\u8bd7
p509
I1053
sV\u66fe\u5de9
p510
I840
sV\u9648\u53d4\u8fbe
p511
I726
sV\u82cf\u6d35
p512
I862
sV\u9093\u5261
p513
I565
sV\u9648\u5b58
p514
I948
sV\u5218\u5f97\u4ec1
p515
I126
sV\u8a79\u7389
p516
I403
sV\u6731\u5ead\u7389
p517
I638
sV\u66f9\u690d
p518
I419
sV\u5f90\u5546
p519
I904
sV\u6c5f\u6df9
p520
I663
sV\u8303\u7956\u79b9
p521
I694
sV\u6765\u9e44
p522
I371
sV\u8f9e\u8d4b\u7cbe\u9009
p523
I1110
sV\u6bb7\u5c27\u85e9
p524
I202
sV\u97e6\u5143\u65e6
p525
I682
sV\u8d75\u78fb\u8001
p526
I488
sV\u891a\u8f7d
p527
I573
sV\u8700\u5bab\u7fa4\u4ed9
p528
I870
sV\u7a0b\u666f\u521d
p529
I917
sV\u5f52\u4ec1
p530
I874
sV\u5199\u98ce
p531
I1117
sV\u8bb8\u5b5f\u5bb9
p532
I812
sV\u845b\u90ef
p533
I237
sV\u9ec4\u88f3
p534
I154
sV\u6768\u57fa
p535
I872
sV\u738b\u5143
p536
I926
sV\u5b64\u72ec
p537
I1046
sV\u4e25\u6b66
p538
I935
sV\u865a\u4e2d
p539
I558
sV\u4f55\u68a6\u6842
p540
I303
sV\u79cb\u5929
p541
I1035
sV\u97e9\u5143\u5409
p542
I192
sV\u5d14\u5143\u7ff0
p543
I821
sV\u8bbd\u523a
p544
I1055
sV\u5f20\u7eb2
p545
I336
sV\u725f\u878d
p546
I229
sV\u5ed6\u5321\u56fe
p547
I680
sV\u738b\u6613\u7b80
p548
I774
sV\u94b1\u8c26\u76ca
p549
I709
sV\u7f57\u9690
p550
I20
sV\u97e6\u87fe
p551
I672
sV\u8303\u4e91
p552
I853
sV\u6c6a\u68a6\u6597
p553
I929
sV\u8d2f\u4f11
p554
I11
sV\u90d1\u71ee
p555
I712
sV\u5218\u5baa
p556
I398
sV\u674e\u6d89
p557
I150
sV\u674e\u4e5d\u9f84
p558
I316
sV\u5b5f\u5bbe\u4e8e
p559
I514
sV\u8a79\u6566\u4ec1
p560
I901
sV\u6000\u53e4
p561
I1051
sV\u5f20\u6613\u4e4b
p562
I714
sV\u6731\u71b9
p563
I370
sV\u4fde\u56fd\u5b9d
p564
I425
sV\u5434\u5b63\u5b50
p565
I693
sV\u6c6a\u5353
p566
I598
sV\u6f58\u5b5f\u9633
p567
I981
sV\u7fc1\u7ef6
p568
I559
sV\u5b97\u6cfd
p569
I389
sV\u5b8b\u65b9\u58f6
p570
I664
sV\u738b\u521d
p571
I509
sV\u8c2d\u5ba3\u5b50
p572
I707
sV\u968b\u4ee3
p573
I1014
sV\u51af\u5ef6\u5df3
p574
I280
sV\u9f50\u5df1
p575
I5
sV\u674e\u9069
p576
I340
sV\u9ad8\u6e58
p577
I902
sV\u4efb\u6631
p578
I520
sV\u5468\u6734
p579
I276
sV\u51b7\u671d\u9633
p580
I667
sV\u5434\u878d
p581
I54
sV\u6234\u590d\u53e4
p582
I259
sV\u5218\u5149\u7956
p583
I661
sV\u5f6d\u801c
p584
I987
sV\u9a6c\u5b50\u4e25
p585
I239
sV\u674e\u7532
p586
I699
sV\u96cd\u88d5\u4e4b
p587
I365
sV\u4ef2\u5e76
p588
I337
sV\u90d1\u7d6a
p589
I829
sV\u5c71\u6c34
p590
I1062
sV\u4f0d\u4e54
p591
I434
sV\u5434\u6f5c
p592
I63
sV\u7c73\u82c7
p593
I753
sV\u5f20\u5148
p594
I109
sV\u5218\u8c61
p595
I866
sV\u5de6\u601d
p596
I751
sV\u5f90\u5f66\u4f2f
p597
I318
sV\u6731\u6e7e
p598
I422
sV\u859b\u9022
p599
I182
sV\u66fe\u534f
p600
I575
sV\u559c\u60a6
p601
I1116
sV\u987e\u708e\u6b66
p602
I960
sV\u6c88\u4f7a\u671f
p603
I102
sV\u6731\u5e86\u9980
p604
I106
sV\u5f20\u795c
p605
I16
sV\u82cf\u62ef
p606
I376
sV\u7f57\u6905
p607
I771
sV\u8303\u4ef2\u6df9
p608
I748
sV\u5b59\u5c45\u656c
p609
I772
sV\u989c\u594e
p610
I744
sV\u8d75\u5f66\u7aef
p611
I111
sV\u94b1\u73dd
p612
I863
sV\u674e\u4e4b\u4eea
p613
I171
sV\u738b\u6daf
p614
I356
sV\u4eac\u9557
p615
I287
sV\u54f2\u7406
p616
I1044
sV\u8d3e\u4ef2\u660e
p617
I924
sV\u9c8d\u9632
p618
I752
sV\u5362\u7956\u768b
p619
I170
sV\u859b\u5947\u7ae5
p620
I849
sV\u65b9\u5cb3
p621
I114
sV\u6768\u8861
p622
I232
sV\u9ec4\u5ead\u575a
p623
I72
sV\u7aa6\u53d4\u5411
p624
I645
sV\u674e\u5ed3
p625
I666
sV\u674e\u4e16\u6c11
p626
I186
sV\u9646\u673a
p627
I791
sV\u4f0d\u6885\u57ce
p628
I915
sV\u4e8e\u9e44
p629
I134
sV\u66f9\u7ec4
p630
I323
sV\u4f24\u6000
p631
I1071
sV\u5b54\u5fb7\u7ecd
p632
I604
sV\u674e\u5218
p633
I635
sV\u8c22\u8596
p634
I527
sV\u5de6\u5043
p635
I435
sV\u9ec4\u673a
p636
I169
sV\u957f\u5b59\u4f50\u8f85
p637
I420
sV\u960e\u671d\u9690
p638
I542
sV\u949f\u55e3\u6210
p639
I786
sV\u674e\u8212
p640
I886
sV\u5f20\u517b\u6d69
p641
I328
sV\u5f20\u4ef2\u7d20
p642
I381
sV\u6b66\u5e73\u4e00
p643
I531
sV\u5b50\u5170
p644
I414
sV\u5f20\u7a88\u7a95
p645
I921
sV\u674e\u7aef
p646
I57
sV\u6b27\u9633\u6f88
p647
I834
sV\u7fc1\u6d2e
p648
I596
sV\u738b\u4e49\u5c71
p649
I690
sV\u9648\u8457
p650
I67
sV\u738b\u5b63\u53cb1
p651
I552
sV\u845b\u957f\u5e9a
p652
I133
sV\u738b\u8d77
p653
I951
sV\u6768\u70af
p654
I238
sV\u9b4f\u5fb5
p655
I329
sV\u6731\u653e
p656
I408
sV\u6731\u96cd
p657
I463
sV\u738b\u65e0\u7ade
p658
I864
sV\u90ed\u5e94\u7965
p659
I136
sV\u674e\u5904\u5168
p660
I174
sV\u674e\u516c\u6634
p661
I367
sS'author_unk'
p662
I0
sV\u502a\u7a31\ue381
p663
I347
sV\u5143\u597d\u95ee
p664
I226
sV\u6f58\u54b8
p665
I814
sV\u97e6\u5e84
p666
I29
sV\u97e9\u7fc3
p667
I108
sV\u5218\u5b50\u5bf0
p668
I497
sV\u66f9\u4e15
p669
I713
sV\u82cf\u66fc\u6b8a
p670
I884
sV\u51af\u65f6\u884c
p671
I592
sV\u6768\u708e\u6b63
p672
I315
sV\u738b\u8d28
p673
I203
sV\u5e38\u886e
p674
I679
sV\u738b\u6bc2
p675
I513
sV\u79e6\u7cfb
p676
I205
sV\u674e\u5eb7\u6210
p677
I964
sV\u88f4\u5ea6
p678
I373
sV\u5f6d\u5b50\u7fd4
p679
I882
sV\u9c8d\u6eb6
p680
I91
sV\u5b59\u5143\u664f
p681
I206
sV\u5468\u6587\u8d28
p682
I532
sV\u859b\u7a37
p683
I580
sV\u7545\u5f53
p684
I549
sV\u5b59\u9016
p685
I236
sV\u97e6\u55e3\u7acb
p686
I796
sV\u9001\u522b
p687
I1026
sV\u674e\u592a\u53e4
p688
I675
sV\u5f20\u67ec\u4e4b
p689
I941
sV\u5218\u6ca7
p690
I162
sV\u859b\u80fd
p691
I41
sV\u6b66\u4e09\u601d
p692
I486
sV\u9ad8\u767b
p693
I639
sV\u674e\u5ef7\u5fe0
p694
I548
sV\u6c88\u5f6c
p695
I517
sV\u674e\u662d\u8c61
p696
I740
sV\u90d1\u57df
p697
I697
sV\u5f20\u6998
p698
I261
sV\u859b\u5e08\u77f3
p699
I599
sV\u88f4\u8bf4
p700
I159
sV\u6d2a\u9002
p701
I144
sV\u6731\u957f\u6587
p702
I850
sV\u5f90\u4ef2\u96c5
p703
I823
sV\u5f20\u8861
p704
I984
sV\u53ef\u670b
p705
I883
sV\u5904\u9ed8
p706
I711
sV\u6797\u900b
p707
I781
sV\u80e1\u7ffc\u9f99
p708
I595
sV\u5362\u9e3f\u4e00
p709
I691
sV\u5f20\u534e
p710
I993
sV\u67f3\u6811
p711
I1082
sV\u9648\u6055\u53ef
p712
I764
sV\u5173\u6c49\u537f
p713
I252
sV\u5218\u9547
p714
I385
sV\u5f20\u9e23\u5584
p715
I865
sV\u540c\u60c5
p716
I1089
sV\u5b59\u9053\u7eda
p717
I734
sV\u5362\u70b3
p718
I138
sV\u66f9\u5fb7
p719
I852
sV\u5cb3\u98de
p720
I502
sV\u6e29\u5ead\u7b60
p721
I37
sV\u5ed6\u884c\u4e4b
p722
I295
sV\u5468\u6619
p723
I85
sV\u674e\u534e
p724
I521
sV\u4e24\u6c49
p725
I1009
sV\u5f20\u5b50\u5bb9
p726
I485
sV\u9b4f\u592b\u4eba
p727
I470
sV\u738b\u4e4b\u9053
p728
I90
sV\u5218\u661a\u865a
p729
I538
sV\u7ae0\u5b5d\u6807
p730
I218
sV\u7da6\u6bcb\u6f5c
p731
I395
sV\u56de\u5fc6
p732
I1113
sV\u65b9\u5343\u91cc
p733
I175
sV\u5218\u6e7e
p734
I939
sV\u8212\u4eb6\ue238
p735
I275
sV\u6c88\u7ea6
p736
I602
sV\u5a49\u7ea6
p737
I1020
sV\u4e0a\u5b98\u662d\u5bb9
p738
I855
sV\u5229\u767b
p739
I634
sV\u5362\u58eb\u8861
p740
I720
sV\u6c6a\u85fb
p741
I836
sV\u5d14\u6db2
p742
I756
sV\u6881\u680b
p743
I890
sV\u6218\u4e89
p744
I1061
sV\u8d75\u529f\u53ef
p745
I767
sV\u5415\u5ca9
p746
I152
sV\u4e01\u4ed9\u829d
p747
I613
sV\u5f20\u5143\u5e72
p748
I92
sV\u738b\u55a6
p749
I925
sV\u989c\u771f\u537f
p750
I357
sV\u848b\u51bd
p751
I843
sV\u90d1\u4e16\u7ffc
p752
I909
sV\u9646\u6e38
p753
I82
sV\u987e\u4e91
p754
I780
sV\u5362\u50ce
p755
I586
sV\u5178\u6545
p756
I1111
sV\u674e\u9686\u57fa
p757
I225
sV\u5f20\u4e5d\u9f84
p758
I81
sV\u675c\u7267
p759
I18
sV\u5218\u57d9
p760
I362
sV\u9ad8\u87fe
p761
I345
sV\u67e5\u5fb7\u537f
p762
I806
sV\u88f4\u5937\u76f4
p763
I253
sV\u6641\u8865\u4e4b
p764
I104
sV\u5f20\u8819
p765
I161
sV\u9648\u6da6
p766
I759
sV\u5468\u7e47
p767
I438
sV\u6b27\u9633\u886e
p768
I723
sV\u9648\u6d4e\u7fc1
p769
I938
sV\u8c6a\u653e
p770
I1058
sV\u5510\u73d9
p771
I757
sV\u674e\u81f4\u8fdc
p772
I457
sV\u548f\u7269
p773
I1021
sS'dynasty_unk'
p774
I1001
sV\u738b\u5468
p775
I250
sV\u9a86\u5bbe\u738b
p776
I139
sV\u97e9\u7ef4
p777
I997
sV\u738b\u4ee5\u5b81
p778
I350
sV\u5f20\u93a1\ue310
p779
I188
sV\u9b4f\u627f\u73ed
p780
I606
sV\u5f20\u5357\u53f2
p781
I397
sV\u674e\u660c\u7b26
p782
I331
sV\u55bb\u51eb
p783
I224
sV\u7aa6\u5de9
p784
I297
sV\u8d75\u6587
p785
I231
sV\u674e\u6687
p786
I732
sV\u53ef\u65fb
p787
I462
sV\u4e2d\u79cb\u8282
p788
I1099
sV\u5730\u540d
p789
I1096
sV\u5218\u5b50\u624d
p790
I933
sV\u674e\u5f25\u900a
p791
I193
sV\u536b\u5b97\u6b66
p792
I665
sV\u7530\u4e3a
p793
I892
sV\u5d14\u83ba\u83ba
p794
I920
sV\u80e1\u7693
p795
I958
sV\u738b\u5343\u79cb
p796
I207
sV\u738b\u9a7e
p797
I810
sV\u675c\u65df\ue492
p798
I974
sV\u5d14\u6566\u793c
p799
I820
sV\u6768\u4e07\u91cc
p800
I321
sV\u738b\u6c82\u5b59
p801
I244
sV\u7c73\u53cb\u4ec1
p802
I335
sV\u738b\u4ec1\u88d5
p803
I561
sV\u66f9\u96ea\u82b9
p804
I378
sV\u90d1\u5149\u7956
p805
I593
sV\u60dc\u522b
p806
I1094
sV\u6b27\u9633\u70af
p807
I312
sV\u6155\u5e7d
p808
I621
sV\u53f8\u9a6c\u624e
p809
I310
sV\u53d9\u4e8b
p810
I1056
sV\u5218\u5a01
p811
I399
sV\u60dc\u6625
p812
I1097
sV\u59da\u52c9
p813
I333
sV\u6545\u4e8b
p814
I1043
sV\u5415\u6b62\u5eb5
p815
I787
sV\u738b\u742a
p816
I657
sV\u8bb8\u68e0
p817
I127
sV\u8d3e\u81f3
p818
I281
sV\u6797\u6ecb
p819
I897
sV\u987e\u5910
p820
I480
sV\u6731\u6566\u5112
p821
I65
sV\u65e0\u53ef
p822
I168
sV\u5510\u4ee3
p823
I1002
sV\u8d3a\u94f8
p824
I55
sV\u66f9\u677e
p825
I120
sV\u95fa\u6028
p826
I1057
sV\u674e\u54b8\u7528
p827
I96
sV\u80e1\u5bbf
p828
I479
sV\u9a6c\u4f2f\u5347
p829
I962
sV\u5434\u4f1f\u4e1a
p830
I410
sV\u50a8\u5149\u7fb2
p831
I99
sV\u5434\u6587\u82f1
p832
I43
sV\u6768\u51dd
p833
I200
sV\u5f90\u575a
p834
I662
sV\u6587\u5ef7\u5f0f
p835
I878
sV\u6b66\u5219\u5929
p836
I270
sV\u5f20\u708e
p837
I51
sV\u4e8e\u6fc6
p838
I263
sV\u738b\u8c0c
p839
I835
sV\u97e9\u6e89
p840
I777
sV\u5d14\u73cf
p841
I647
sV\u5434\u4ec1\u74a7
p842
I633
sV\u6768\u51cc
p843
I445
sV\u611f\u6168
p844
I1052
sV\u4e03\u5915\u8282
p845
I1102
sV\u67f3\u68e0
p846
I914
sV\u7f57\u90ba
p847
I123
sV\u5468\u8d3a
p848
I177
sV\u674e\u5fb7\u88d5
p849
I130
sV\u8bb8\u68d0\ue1e9
p850
I481
sV\u9b4f\u4e86\u7fc1
p851
I33
sV\u90d1\u8c37
p852
I48
sV\u7f8a\u58eb\u8c14
p853
I172
sV\u6f58\u9606
p854
I705
sV\u4e8e\u8c26
p855
I718
sV\u7956\u548f
p856
I320
sV\u79bb\u522b
p857
I1033
sV\u8d75\u560f
p858
I39
sV\u5362\u6bb7
p859
I406
sV\u9646\u7545
p860
I332
sV\u4e49\u51c0
p861
I871
sV\u5bb4\u4f1a
p862
I1114
sV\u725b\u5e0c\u6d4e
p863
I569
sV\u66fe\u6165
p864
I801
sV\u5b8b\u6fc2
p865
I943
sV\u9ad8\u74a9
p866
I908
sV\u82cf\u988b
p867
I155
sV\u674e\u884d
p868
I899
sV\u5e7f\u5ba3
p869
I530
sV\u8c22\u6713
p870
I627
sV\u859b\u5f0f
p871
I708
sV\u738b\u8fc8
p872
I475
sV\u59da\u4e91\u6587
p873
I736
sV\u53e4\u6587\u89c2\u6b62
p874
I1038
sV\u8d3a\u671d
p875
I818
sV\u5f20\u8350
p876
I986
sV\u88f4\u8fea
p877
I382
sV\u76f8\u601d
p878
I1041
sV\u5199\u82b1
p879
I1049
sV\u674e\u5c71\u752b
p880
I199
sV\u51af\u4f09
p881
I990
sV\u53f2\u6d69
p882
I121
sV\u83ab\u5c06
p883
I407
sV\u8d75\u4ee5\u592b
p884
I216
sV\u5199\u96e8
p885
I1067
sV\u7aa6\u5e38
p886
I401
sV\u5218\u5546
p887
I147
sV\u660e\u4ee3
p888
I1007
sV\u5510\u8bd7\u4e09\u767e\u9996
p889
I1027
sV\u674e\u767e\u836f
p890
I377
sV\u674e\u83b1\u8001
p891
I506
sV\u996e\u9152
p892
I1079
sV\u5218\u4e00\u6b62
p893
I293
sV\u5f20\u6587\u742e
p894
I788
sV\u66f9\u64cd
p895
I858
sV\u5362\u5ef6\u8ba9
p896
I564
sV\u6768\u671d\u82f1
p897
I700
sV\u859b\u66dc
p898
I623
sV\u5218\u65b9\u5e73
p899
I372
sV\u674e\u6d41\u8c26
p900
I413
sV\u53cb\u60c5
p901
I1047
sV\u5468\u7d2b\u829d
p902
I112
sV\u5f20\u5f18\u8303
p903
I628
sV\u5d14\u6d82
p904
I163
sV\u674e\u9002
p905
I543
sV\u9648\u7eaa
p906
I838
sV\u9a6c\u6234
p907
I103
sV\u9648\u4eae
p908
I198
sV\u674e\u5546\u82f1
p909
I961
sV\u9093\u8083
p910
I282
sV\u5f90\u94c9
p911
I56
sV\u674e\u5ba3\u53e4
p912
I867
sV\u5b8b\u7389
p913
I979
sV\u6c88\u851a
p914
I441
sV\u6c64\u821c\u6c11
p915
I358
sV\u987e\u657b
p916
I583
sV\u590f\u5929
p917
I1088
sV\u7687\u752b\u66fe
p918
I166
sV\u8d75\u5b50\u5d27
p919
I745
sV\u674e\u90e2
p920
I135
sV\u97e9\u6df2
p921
I84
sV\u5ed6\u878d
p922
I822
sV\u9648\u6654
p923
I945
sV\u7f57\u5fd7\u4ec1
p924
I842
sV\u5f20\u8bf4
p925
I50
sV\u8d75\u5b5f\u575a
p926
I654
sV\u960e\u9632
p927
I966
sV\u65b9\u5e72
p928
I35
sV\u5d14\u98a2
p929
I196
sV\u5b9d\u6708
p930
I905
sV\u5d14\u90a0
p931
I988
sV\u58ee\u5fd7
p932
I1095
sV\u9ad8\u89c2\u56fd
p933
I151
sV\u4e18\u4e3a
p934
I584
sV\u88f4\u8654\u9980
p935
I932
sV\u9ad8\u542f
p936
I622
sV\u90d1\u611a
p937
I677
sV\u5218\u56e0
p938
I837
sV\u9648\u9676
p939
I148
sV\u5b59\u5149\u5baa
p940
I240
sV\u5c91\u53c2
p941
I17
sV\u66fe\u89cc
p942
I158
sV\u8fb9\u585e
p943
I1050
sV\u738b\u4e16\u8d1e
p944
I949
sV\u674e\u5609\u7950
p945
I131
sV\u5f90\u6c0f
p946
I525
sV\u5362\u631a
p947
I534
sV\u6743\u5fb7\u8206
p948
I34
sV\u5973\u5b50
p949
I1032
sV\u9f9a\u5927\u660e
p950
I959
sV\u53f8\u9a6c\u5149
p951
I649
sV\u738b\u5b89\u77f3
p952
I243
sV\u5e84\u5357\u6770
p953
I511
sV\u7aa6\u5ea0
p954
I458
sV\u5362\u8087
p955
I363
sV\u5218\u4ed9\u4f26
p956
I379
sV\u6885\u5c27\u81e3
p957
I165
sV\u4e25\u7ef4
p958
I223
sV\u534e\u5cb3
p959
I518
sV\u7aa6\u7fa4
p960
I427
sV\u5b59\u60df\u4fe1
p961
I643
sV\u59da\u6708\u534e
p962
I678
sV\u5d14\u65e5\u7528
p963
I594
sV\u674e\u9880
p964
I137
sV\u9c7c\u7384\u673a
p965
I264
sV\u751f\u6d3b
p966
I1025
sV\u4e25\u4ec1
p967
I368
sV\u5f20\u592b\u4eba
p968
I912
sV\u5434\u5219\u793c
p969
I322
sV\u5218\u671b\u4e4b
p970
I982
sV\u521d\u4e2d\u6587\u8a00\u6587
p971
I1063
sV\u9648\u5b50\u826f
p972
I581
sV\u5f90\u5b89\u8d1e
p973
I629
sV\u664f\u51e0\u9053
p974
I64
sV\u97e9\u7581
p975
I940
sV\u674e\u9891
p976
I77
sV\u738b\u7f19
p977
I728
sV\u6c6a\u5143\u91cf
p978
I245
sV\u5b8b\u4ee3
p979
I1003
sV\u9648\u6df1
p980
I861
sV\u6768\u65e0\u548e
p981
I97
sV\u7687\u752b\u677e
p982
I443
sV\u738b\u7ee9
p983
I284
sV\u5353\u7530
p984
I845
sV\u53f6\u68a6\u5f97
p985
I160
sV\u90d1\u9521
p986
I698
sV\u8d75\u9f0e
p987
I273
sV\u5bd3\u4eba
p988
I1091
sV\u6768\u5914
p989
I418
sV\u738b\u5b89\u4e2d
p990
I248
sV\u738b\u7ef4
p991
I40
sV\u8521\u4f38
p992
I100
sV\u9ec4\u5b50\u884c
p993
I919
sV\u51af\u9053
p994
I916
sV\u76ae\u65e5\u4f11
p995
I36
sV\u674e\u5149
p996
I571
sV\u9ec4\u516c\u5ea6
p997
I546
sV\u7c73\u82be
p998
I494
sV\u674e\u7941
p999
I578
sV\u674e\u4ece\u5468
p1000
I684
sV\u4e07\u695a
p1001
I739
sV\u4fee\u7766
p1002
I394
sV\u8d75\u663e\u5b8f
p1003
I828
sV\u5218\u5c06\u5b59
p1004
I471
sV\u5218\u5f7b
p1005
I860
sV\u674e\u715c
p1006
I260
sV\u738b\u4ece\u53d4
p1007
I1000
sV\u6292\u6000
p1008
I1022
sV\u9646\u9f9f\u8499
p1009
I13
sV\u5305\u878d
p1010
I784
sV\u601d\u5ff5
p1011
I1024
sV\u91cd\u9633\u8282
p1012
I1086
sV\u5d14\u62a4
p1013
I983
sV\u6210\u5f66\u96c4
p1014
I464
sV\u738b\u79b9\u5041
p1015
I686
sV\u5218\u5f07
p1016
I846
sV\u5218\u514b\u5e84
p1017
I60
sV\u6e29\u5ead\u7693
p1018
I918
sV\u5434\u897f\u9038
p1019
I669
sV\u7434\u64cd
p1020
I743
sV\u7530\u5a25
p1021
I903
sV\u97e9\u742e
p1022
I411
sV\u5b54\u7ecd\u5b89
p1023
I830
sV\u6b65\u975e\u70df
p1024
I782
sV\u675c\u5ba1\u8a00
p1025
I296
sV\u7a0b\u5927\u660c
p1026
I272
sV\u5f20\u95ee\u9676
p1027
I887
sV\u674e\u7fa4\u7389
p1028
I45
sV\u7ae0\u516b\u5143
p1029
I937
sV\u987e\u975e\u718a
p1030
I212
sV\u611f\u53f9
p1031
I1059
sV\u9648\u7fbd
p1032
I230
sV\u6b27\u9633\u8a79
p1033
I195
sV\u5f20\u5fd7\u548c
p1034
I841
sV\u8d75\u4f76
p1035
I579
sV\u5434\u6cf3
p1036
I319
sV\u8303\u6210\u5927
p1037
I140
sV\u5510\u6c42
p1038
I324
sV\u82cf\u5e7f\u6587
p1039
I927
sV\u674e\u5efa\u52cb
p1040
I183
sV\u90d1\u754b
p1041
I554
sV\u548c\u51dd
p1042
I305
sV\u859b\u636e
p1043
I589
sV\u8d75\u5584\u62ec
p1044
I265
sV\u9648\u74d8\ue37c
p1045
I432
sV\u5411\u5b50\u8af2
p1046
I95
sV\u4f5a\u540d
p1047
I2
sV\u987e\u5fb7\u6da6
p1048
I832
sV\u5434\u741a
p1049
I955
sV\u8d75\u5d07\ue3dd
p1050
I496
sV\u9879\u65af
p1051
I167
sV\u5143\u4ee3
p1052
I1004
sV\u60e0\u6d2a
p1053
I429
sV\u5218\u8fc7
p1054
I210
sV\u738b\u592b\u4e4b
p1055
I811
sV\u90d1\u5143\u79c0
p1056
I307
sV\u848b\u6377
p1057
I180
sV\u5b5f\u90ca
p1058
I24
sV\u6797\u6b63\u5927
p1059
I301
sV\u9648\u5b50\u6602
p1060
I176
sV\u5305\u4f55
p1061
I483
sV\u8d75\u6784
p1062
I547
sV\u848b\u9632
p1063
I603
sV\u675c\u8340\u9e64
p1064
I23
sV\u738b\u6e7e
p1065
I671
sV\u90d1\u7dae
p1066
I587
sV\u6c88\u9882
p1067
I954
sV\u67f4\u5143\u5f6a
p1068
I768
sV\u664f\u6b8a
p1069
I124
sV\u7a0b\u5fc5
p1070
I306
sV\u674e\u89cf
p1071
I980
sV\u738b\u777f
p1072
I652
sV\u859b\u83b9
p1073
I632
sV\u7231\u56fd
p1074
I1042
sV\u51c0\u7aef
p1075
I999
sV\u51af\u53d6\u6d3d
p1076
I269
sV\u5218\u57fa
p1077
I444
sV\u803f\u6e4b
p1078
I94
sV\u66f9\u5510
p1079
I299
sV\u5218\u7ff0
p1080
I847
sV\u5305\u4f76
p1081
I268
sV\u8881\u90ca
p1082
I625
sV\u5f20\u5b5d\u5fe0
p1083
I776
sV\u66fe\u60c7
p1084
I895
sV\u6bdb\u6587\u9521
p1085
I278
sV\u8d3a\u77e5\u7ae0
p1086
I467
sV\u5f20\u62a1
p1087
I145
sV\u738b\u5b89\u56fd
p1088
I994
sV\u4efb\u7ffb
p1089
I498
sV\u8d75\u5584\u625b
p1090
I567
sV\u6d2a\u8336
p1091
I560
sV\u59da\u7cfb
p1092
I660
sV\u611f\u4f24
p1093
I1048
sV\u80e1\u6587\u537f
p1094
I800
sV\u8fd1\u4ee3
p1095
I1015
sV\u90d1\u5de2
p1096
I380
sV\u5415\u6e29
p1097
I128
sV\u5218\u662d\u79b9
p1098
I563
sV\u738b\u5b89\u793c
p1099
I618
sV\u5415\u80dc\u5df1
p1100
I184
sV\u8d5e\u9882
p1101
I1074
sV\u6768\u65bc\u9675
p1102
I978
sV\u674e\u51b6
p1103
I476
sV\u8d75\u7ffc
p1104
I770
sV\u6768\u666f\u8d24
p1105
I605
sV\u6768\u5de8\u6e90
p1106
I119
sV\u8bb8\u575a2
p1107
I934
sV\u6768\u53d1
p1108
I591
sV\u67f4\u671b
p1109
I582
sV\u9eb9\u4fe1\u9675
p1110
I831
sV\u9648\u6734
p1111
I721
sV\u6708\u4eae
p1112
I1076
sV\u7a0b\u5793
p1113
I49
sV\u5415\u6e2d\u8001
p1114
I132
sV\u674e\u58c1
p1115
I701
sV\u9648\u53bb\u75be
p1116
I421
sV\u6234\u53d4\u4f26
p1117
I52
sV\u4e8e\u826f\u53f2
p1118
I851
s.